target datalayout = "e-m:e-p270:32:32-p271:32:32-p272:64:64-i64:64-i128:128-f80:128-n8:16:32:64-S128"
target triple = "x86_64-unknown-linux-gnu"

%"class.zmq::reaper_t" = type <{ %"class.zmq::object_t.base", [4 x i8], %"struct.zmq::i_poll_events", %"class.zmq::mailbox_t", ptr, ptr, i32, i8, [3 x i8], i32, [4 x i8] }>
%"class.zmq::object_t.base" = type <{ ptr, ptr, i32 }>
%"struct.zmq::i_poll_events" = type { ptr }
%"class.zmq::mailbox_t" = type <{ %"class.zmq::i_mailbox", %"class.zmq::ypipe_t", %"class.zmq::signaler_t", [4 x i8], %"class.zmq::mutex_t", i8, [7 x i8] }>
%"class.zmq::i_mailbox" = type { ptr }
%"class.zmq::ypipe_t" = type { %"class.zmq::ypipe_base_t", %"class.zmq::yqueue_t", ptr, ptr, ptr, %"class.zmq::atomic_ptr_t.0" }
%"class.zmq::ypipe_base_t" = type { ptr }
%"class.zmq::yqueue_t" = type { ptr, i32, ptr, i32, ptr, i32, %"class.zmq::atomic_ptr_t" }
%"class.zmq::atomic_ptr_t" = type { %"struct.std::atomic" }
%"struct.std::atomic" = type { %"struct.std::__atomic_base" }
%"struct.std::__atomic_base" = type { ptr }
%"class.zmq::atomic_ptr_t.0" = type { %"struct.std::atomic.1" }
%"struct.std::atomic.1" = type { %"struct.std::__atomic_base.2" }
%"struct.std::__atomic_base.2" = type { ptr }
%"class.zmq::signaler_t" = type { i32, i32, i32 }
%"class.zmq::mutex_t" = type <{ %union.pthread_mutex_t, %union.pthread_mutexattr_t, [4 x i8] }>
%union.pthread_mutex_t = type { %struct.__pthread_mutex_s }
%struct.__pthread_mutex_s = type { i32, i32, i32, i32, i32, i16, i16, %struct.__pthread_internal_list }
%struct.__pthread_internal_list = type { ptr, ptr }
%union.pthread_mutexattr_t = type { i32 }

@stderr = external global ptr, align 8
@.str.1 = private unnamed_addr constant [106 x i8] c"generated/home/dtcxzyw/WorkSpace/Projects/compilers/llvm-opt-benchmark/bench/libzmq/libzmq/src/reaper.cpp\00", align 1
@.str.3 = private unnamed_addr constant [30 x i8] c"Assertion failed: %s (%s:%d)\0A\00", align 1
@.str.4 = private unnamed_addr constant [18 x i8] c"_mailbox.valid ()\00", align 1
@.str.5 = private unnamed_addr constant [7 x i8] c"Reaper\00", align 1

; Function Attrs: mustprogress uwtable
define void @_ZN3zmq8reaper_t5startEv(ptr noundef nonnull align 8 dereferenceable(240) %this) #0 align 2 {
entry:
  %this.addr = alloca ptr, align 8
  store ptr %this, ptr %this.addr, align 8
  %this1 = load ptr, ptr %this.addr, align 8
  br label %do.body

do.body:                                          ; preds = %entry
  %_mailbox = getelementptr inbounds %"class.zmq::reaper_t", ptr %this1, i32 0, i32 3
  %call = call noundef zeroext i1 @_ZNK3zmq9mailbox_t5validEv(ptr noundef nonnull align 8 dereferenceable(176) %_mailbox)
  %lnot = xor i1 %call, true
  br i1 %lnot, label %if.then, label %if.end

if.then:                                          ; preds = %do.body
  %0 = load ptr, ptr @stderr, align 8
  %call2 = call i32 (ptr, ptr, ...) @fprintf(ptr noundef %0, ptr noundef @.str.3, ptr noundef @.str.4, ptr noundef @.str.1, i32 noundef 44)
  %1 = load ptr, ptr @stderr, align 8
  %call3 = call i32 @fflush(ptr noundef %1)
  call void @_ZN3zmq9zmq_abortEPKc(ptr noundef @.str.4)
  br label %if.end

if.end:                                           ; preds = %if.then, %do.body
  br label %do.end

do.end:                                           ; preds = %if.end
  %_poller = getelementptr inbounds %"class.zmq::reaper_t", ptr %this1, i32 0, i32 5
  %2 = load ptr, ptr %_poller, align 8
  call void @_ZN3zmq20worker_poller_base_t5startEPKc(ptr noundef nonnull align 8 dereferenceable(192) %2, ptr noundef @.str.5)
  ret void
}