; Function Attrs: mustprogress uwtable
define void @_ZN3zmq8reaper_t5startEv(ptr noundef nonnull align 8 dereferenceable(240) %this) local_unnamed_addr #0 align 2 {
entry:
  %_mailbox = getelementptr inbounds i8, ptr %this, i64 32
  %call = tail call noundef zeroext i1 @_ZNK3zmq9mailbox_t5validEv(ptr noundef nonnull align 8 dereferenceable(176) %_mailbox)
  br i1 %call, label %do.end, label %if.then

if.then:                                          ; preds = %entry
  %0 = load ptr, ptr @stderr, align 8
  %call2 = tail call i32 (ptr, ptr, ...) @fprintf(ptr noundef %0, ptr noundef nonnull @.str.3, ptr noundef nonnull @.str.4, ptr noundef nonnull @.str.1, i32 noundef 44) #13
  %1 = load ptr, ptr @stderr, align 8
  %call3 = tail call i32 @fflush(ptr noundef %1)
  tail call void @_ZN3zmq9zmq_abortEPKc(ptr noundef nonnull @.str.4)
  br label %do.end

do.end:                                           ; preds = %entry, %if.then
  %_poller = getelementptr inbounds i8, ptr %this, i64 216
  %2 = load ptr, ptr %_poller, align 8
  tail call void @_ZN3zmq20worker_poller_base_t5startEPKc(ptr noundef nonnull align 8 dereferenceable(192) %2, ptr noundef nonnull @.str.5)
  ret void
}